/*
 * Intel ACPI Component Architecture
 * AML/ASL+ Disassembler version 20221020 (64-bit version)
 * Copyright (c) 2000 - 2022 Intel Corporation
 * 
 * Disassembly of FPDT.bin, Thu Apr  6 17:32:52 2023
 *
 * ACPI Data Table [FPDT]
 *
 * Format: [HexOffset DecimalOffset ByteLength]  FieldName : FieldValue (in hex)
 */

[000h 0000 004h]                   Signature : "FPDT"    [Firmware Performance Data Table]
[004h 0004 004h]                Table Length : 00000044
[008h 0008 001h]                    Revision : 01
[009h 0009 001h]                    Checksum : 07
[00Ah 0010 006h]                      Oem ID : "_ASUS_"
[010h 0016 008h]                Oem Table ID : "Notebook"
[018h 0024 004h]                Oem Revision : 01072009
[01Ch 0028 004h]             Asl Compiler ID : "AMI "
[020h 0032 004h]       Asl Compiler Revision : 00010013


[024h 0036 002h]               Subtable Type : 0001
[026h 0038 001h]                      Length : 10
[027h 0039 001h]                    Revision : 01
[028h 0040 004h]                    Reserved : 00000000
[02Ch 0044 008h]         S3PT Record Address : 0000000079D8E530

[034h 0052 002h]               Subtable Type : 0000
[036h 0054 001h]                      Length : 10
[037h 0055 001h]                    Revision : 01
[038h 0056 004h]                    Reserved : 00000000
[03Ch 0060 008h]    FPDT Boot Record Address : 0000000079D8E550

Raw Table Data: Length 68 (0x44)

    0000: 46 50 44 54 44 00 00 00 01 07 5F 41 53 55 53 5F  // FPDTD....._ASUS_
    0010: 4E 6F 74 65 62 6F 6F 6B 09 20 07 01 41 4D 49 20  // Notebook. ..AMI 
    0020: 13 00 01 00 01 00 10 01 00 00 00 00 30 E5 D8 79  // ............0..y
    0030: 00 00 00 00 00 00 10 01 00 00 00 00 50 E5 D8 79  // ............P..y
    0040: 00 00 00 00                                      // ....
