/*
 * Intel ACPI Component Architecture
 * AML/ASL+ Disassembler version 20221020 (64-bit version)
 * Copyright (c) 2000 - 2022 Intel Corporation
 * 
 * Disassembly of WSMT.bin, Thu Apr  6 17:32:52 2023
 *
 * ACPI Data Table [WSMT]
 *
 * Format: [HexOffset DecimalOffset ByteLength]  FieldName : FieldValue (in hex)
 */

[000h 0000 004h]                   Signature : "WSMT"    [Windows SMM Security Mitigations Table]
[004h 0004 004h]                Table Length : 00000028
[008h 0008 001h]                    Revision : 01
[009h 0009 001h]                    Checksum : 15
[00Ah 0010 006h]                      Oem ID : "_ASUS_"
[010h 0016 008h]                Oem Table ID : "Notebook"
[018h 0024 004h]                Oem Revision : 01072009
[01Ch 0028 004h]             Asl Compiler ID : "AMI "
[020h 0032 004h]       Asl Compiler Revision : 00010013

[024h 0036 004h]            Protection Flags : 00000000
                          FIXED_COMM_BUFFERS : 0
           COMM_BUFFER_NESTED_PTR_PROTECTION : 0
                  SYSTEM_RESOURCE_PROTECTION : 0

Raw Table Data: Length 40 (0x28)

    0000: 57 53 4D 54 28 00 00 00 01 15 5F 41 53 55 53 5F  // WSMT(....._ASUS_
    0010: 4E 6F 74 65 62 6F 6F 6B 09 20 07 01 41 4D 49 20  // Notebook. ..AMI 
    0020: 13 00 01 00 00 00 00 00                          // ........
